; Function Attrs: mustprogress uwtable
define dso_local void @_ZN5ImGui8EndComboEv() local_unnamed_addr #5 {
  %1 = load ptr, ptr @GImGui, align 8, !tbaa !4
  tail call void @_ZN5ImGui8EndPopupEv()
  %2 = getelementptr inbounds nuw i8, ptr %1, i64 9208
  %3 = load i32, ptr %2, align 8, !tbaa !309
  %4 = add nsw i32 %3, -1
  store i32 %4, ptr %2, align 8, !tbaa !309
  ret void
}